target datalayout = "e-m:e-p270:32:32-p271:32:32-p272:64:64-i64:64-i128:128-f80:128-n8:16:32:64-S128"
target triple = "x86_64-pc-linux-gnu"

%struct.__storeu_si128 = type { <2 x i64> }

; Function Attrs: alwaysinline nounwind uwtable
define internal void @_mm_storeu_si128(ptr noundef %0, <2 x i64> noundef %1) #4 {
  %3 = alloca ptr, align 8
  %4 = alloca <2 x i64>, align 16
  store ptr %0, ptr %3, align 8, !tbaa !3
  store <2 x i64> %1, ptr %4, align 16, !tbaa !11
  %5 = load <2 x i64>, ptr %4, align 16, !tbaa !11
  %6 = load ptr, ptr %3, align 8, !tbaa !3
  %7 = getelementptr inbounds nuw %struct.__storeu_si128, ptr %6, i32 0, i32 0
  store <2 x i64> %5, ptr %7, align 1, !tbaa !11
  ret void
}

; Function Attrs: alwaysinline nounwind uwtable
define internal <2 x i64> @_mm_sub_epi16(<2 x i64> noundef %0, <2 x i64> noundef %1) #4 {
  %3 = alloca <2 x i64>, align 16
  %4 = alloca <2 x i64>, align 16
  store <2 x i64> %0, ptr %3, align 16, !tbaa !11
  store <2 x i64> %1, ptr %4, align 16, !tbaa !11
  %5 = load <2 x i64>, ptr %3, align 16, !tbaa !11
  %6 = bitcast <2 x i64> %5 to <8 x i16>
  %7 = load <2 x i64>, ptr %4, align 16, !tbaa !11
  %8 = bitcast <2 x i64> %7 to <8 x i16>
  %9 = sub <8 x i16> %6, %8
  %10 = bitcast <8 x i16> %9 to <2 x i64>
  ret <2 x i64> %10
}

; Function Attrs: alwaysinline nounwind uwtable
define internal <2 x i64> @_mm_unpacklo_epi8(<2 x i64> noundef %0, <2 x i64> noundef %1) #4 {
  %3 = alloca <2 x i64>, align 16
  %4 = alloca <2 x i64>, align 16
  store <2 x i64> %0, ptr %3, align 16, !tbaa !11
  store <2 x i64> %1, ptr %4, align 16, !tbaa !11
  %5 = load <2 x i64>, ptr %3, align 16, !tbaa !11
  %6 = bitcast <2 x i64> %5 to <16 x i8>
  %7 = load <2 x i64>, ptr %4, align 16, !tbaa !11
  %8 = bitcast <2 x i64> %7 to <16 x i8>
  %9 = shufflevector <16 x i8> %6, <16 x i8> %8, <16 x i32> <i32 0, i32 16, i32 1, i32 17, i32 2, i32 18, i32 3, i32 19, i32 4, i32 20, i32 5, i32 21, i32 6, i32 22, i32 7, i32 23>
  %10 = bitcast <16 x i8> %9 to <2 x i64>
  ret <2 x i64> %10
}

; Function Attrs: alwaysinline nounwind uwtable
define internal <2 x i64> @_mm_or_si128(<2 x i64> noundef %0, <2 x i64> noundef %1) #4 {
  %3 = alloca <2 x i64>, align 16
  %4 = alloca <2 x i64>, align 16
  store <2 x i64> %0, ptr %3, align 16, !tbaa !11
  store <2 x i64> %1, ptr %4, align 16, !tbaa !11
  %5 = load <2 x i64>, ptr %3, align 16, !tbaa !11
  %6 = load <2 x i64>, ptr %4, align 16, !tbaa !11
  %7 = or <2 x i64> %5, %6
  ret <2 x i64> %7
}

; Function Attrs: alwaysinline nounwind uwtable
define internal <2 x i64> @_mm_subs_epu8(<2 x i64> noundef %0, <2 x i64> noundef %1) #4 {
  %3 = alloca <2 x i64>, align 16
  %4 = alloca <2 x i64>, align 16
  store <2 x i64> %0, ptr %3, align 16, !tbaa !11
  store <2 x i64> %1, ptr %4, align 16, !tbaa !11
  %5 = load <2 x i64>, ptr %3, align 16, !tbaa !11
  %6 = bitcast <2 x i64> %5 to <16 x i8>
  %7 = load <2 x i64>, ptr %4, align 16, !tbaa !11
  %8 = bitcast <2 x i64> %7 to <16 x i8>
  %9 = call <16 x i8> @llvm.usub.sat.v16i8(<16 x i8> %6, <16 x i8> %8)
  %10 = bitcast <16 x i8> %9 to <2 x i64>
  ret <2 x i64> %10
}

; Function Attrs: alwaysinline nounwind uwtable
define internal <2 x i64> @_mm_cvtsi32_si128(i32 noundef %0) #4 {
  %2 = alloca i32, align 4
  %3 = alloca <4 x i32>, align 16
  store i32 %0, ptr %2, align 4, !tbaa !9
  %4 = load i32, ptr %2, align 4, !tbaa !9
  %5 = insertelement <4 x i32> poison, i32 %4, i32 0
  %6 = insertelement <4 x i32> %5, i32 0, i32 1
  %7 = insertelement <4 x i32> %6, i32 0, i32 2
  %8 = insertelement <4 x i32> %7, i32 0, i32 3
  store <4 x i32> %8, ptr %3, align 16, !tbaa !11
  %9 = load <4 x i32>, ptr %3, align 16, !tbaa !11
  %10 = bitcast <4 x i32> %9 to <2 x i64>
  ret <2 x i64> %10
}

; Function Attrs: alwaysinline nounwind uwtable
define internal <2 x i64> @_mm_setzero_si128() #4 {
  %1 = alloca <2 x i64>, align 16
  store <2 x i64> zeroinitializer, ptr %1, align 16, !tbaa !11
  %2 = load <2 x i64>, ptr %1, align 16, !tbaa !11
  ret <2 x i64> %2
}

; Function Attrs: inlinehint nounwind uwtable
define internal i32 @Select_SSE2(i32 noundef %0, i32 noundef %1, i32 noundef %2) #3 {
  %4 = alloca i32, align 4
  %5 = alloca i32, align 4
  %6 = alloca i32, align 4
  %7 = alloca i32, align 4
  %8 = alloca <2 x i64>, align 16
  %9 = alloca <2 x i64>, align 16
  %10 = alloca <2 x i64>, align 16
  %11 = alloca <2 x i64>, align 16
  %12 = alloca <2 x i64>, align 16
  %13 = alloca <2 x i64>, align 16
  %14 = alloca <2 x i64>, align 16
  %15 = alloca <2 x i64>, align 16
  %16 = alloca <2 x i64>, align 16
  %17 = alloca <2 x i64>, align 16
  %18 = alloca <2 x i64>, align 16
  %19 = alloca <2 x i64>, align 16
  %20 = alloca <2 x i64>, align 16
  %21 = alloca [8 x i16], align 16
  store i32 %0, ptr %4, align 4, !tbaa !9
  store i32 %1, ptr %5, align 4, !tbaa !9
  store i32 %2, ptr %6, align 4, !tbaa !9
  call void @llvm.lifetime.start.p0(i64 4, ptr %7) #9
  call void @llvm.lifetime.start.p0(i64 16, ptr %8) #9
  %22 = call <2 x i64> @_mm_setzero_si128()
  store <2 x i64> %22, ptr %8, align 16, !tbaa !11
  call void @llvm.lifetime.start.p0(i64 16, ptr %9) #9
  %23 = load i32, ptr %4, align 4, !tbaa !9
  %24 = call <2 x i64> @_mm_cvtsi32_si128(i32 noundef %23)
  store <2 x i64> %24, ptr %9, align 16, !tbaa !11
  call void @llvm.lifetime.start.p0(i64 16, ptr %10) #9
  %25 = load i32, ptr %5, align 4, !tbaa !9
  %26 = call <2 x i64> @_mm_cvtsi32_si128(i32 noundef %25)
  store <2 x i64> %26, ptr %10, align 16, !tbaa !11
  call void @llvm.lifetime.start.p0(i64 16, ptr %11) #9
  %27 = load i32, ptr %6, align 4, !tbaa !9
  %28 = call <2 x i64> @_mm_cvtsi32_si128(i32 noundef %27)
  store <2 x i64> %28, ptr %11, align 16, !tbaa !11
  call void @llvm.lifetime.start.p0(i64 16, ptr %12) #9
  %29 = load <2 x i64>, ptr %9, align 16, !tbaa !11
  %30 = load <2 x i64>, ptr %11, align 16, !tbaa !11
  %31 = call <2 x i64> @_mm_subs_epu8(<2 x i64> noundef %29, <2 x i64> noundef %30)
  store <2 x i64> %31, ptr %12, align 16, !tbaa !11
  call void @llvm.lifetime.start.p0(i64 16, ptr %13) #9
  %32 = load <2 x i64>, ptr %11, align 16, !tbaa !11
  %33 = load <2 x i64>, ptr %9, align 16, !tbaa !11
  %34 = call <2 x i64> @_mm_subs_epu8(<2 x i64> noundef %32, <2 x i64> noundef %33)
  store <2 x i64> %34, ptr %13, align 16, !tbaa !11
  call void @llvm.lifetime.start.p0(i64 16, ptr %14) #9
  %35 = load <2 x i64>, ptr %10, align 16, !tbaa !11
  %36 = load <2 x i64>, ptr %11, align 16, !tbaa !11
  %37 = call <2 x i64> @_mm_subs_epu8(<2 x i64> noundef %35, <2 x i64> noundef %36)
  store <2 x i64> %37, ptr %14, align 16, !tbaa !11
  call void @llvm.lifetime.start.p0(i64 16, ptr %15) #9
  %38 = load <2 x i64>, ptr %11, align 16, !tbaa !11
  %39 = load <2 x i64>, ptr %10, align 16, !tbaa !11
  %40 = call <2 x i64> @_mm_subs_epu8(<2 x i64> noundef %38, <2 x i64> noundef %39)
  store <2 x i64> %40, ptr %15, align 16, !tbaa !11
  call void @llvm.lifetime.start.p0(i64 16, ptr %16) #9
  %41 = load <2 x i64>, ptr %12, align 16, !tbaa !11
  %42 = load <2 x i64>, ptr %13, align 16, !tbaa !11
  %43 = call <2 x i64> @_mm_or_si128(<2 x i64> noundef %41, <2 x i64> noundef %42)
  store <2 x i64> %43, ptr %16, align 16, !tbaa !11
  call void @llvm.lifetime.start.p0(i64 16, ptr %17) #9
  %44 = load <2 x i64>, ptr %14, align 16, !tbaa !11
  %45 = load <2 x i64>, ptr %15, align 16, !tbaa !11
  %46 = call <2 x i64> @_mm_or_si128(<2 x i64> noundef %44, <2 x i64> noundef %45)
  store <2 x i64> %46, ptr %17, align 16, !tbaa !11
  call void @llvm.lifetime.start.p0(i64 16, ptr %18) #9
  %47 = load <2 x i64>, ptr %16, align 16, !tbaa !11
  %48 = load <2 x i64>, ptr %8, align 16, !tbaa !11
  %49 = call <2 x i64> @_mm_unpacklo_epi8(<2 x i64> noundef %47, <2 x i64> noundef %48)
  store <2 x i64> %49, ptr %18, align 16, !tbaa !11
  call void @llvm.lifetime.start.p0(i64 16, ptr %19) #9
  %50 = load <2 x i64>, ptr %17, align 16, !tbaa !11
  %51 = load <2 x i64>, ptr %8, align 16, !tbaa !11
  %52 = call <2 x i64> @_mm_unpacklo_epi8(<2 x i64> noundef %50, <2 x i64> noundef %51)
  store <2 x i64> %52, ptr %19, align 16, !tbaa !11
  call void @llvm.lifetime.start.p0(i64 16, ptr %20) #9
  %53 = load <2 x i64>, ptr %19, align 16, !tbaa !11
  %54 = load <2 x i64>, ptr %18, align 16, !tbaa !11
  %55 = call <2 x i64> @_mm_sub_epi16(<2 x i64> noundef %53, <2 x i64> noundef %54)
  store <2 x i64> %55, ptr %20, align 16, !tbaa !11
  call void @llvm.lifetime.start.p0(i64 16, ptr %21) #9
  %56 = getelementptr inbounds [8 x i16], ptr %21, i64 0, i64 0
  %57 = load <2 x i64>, ptr %20, align 16, !tbaa !11
  call void @_mm_storeu_si128(ptr noundef %56, <2 x i64> noundef %57)
  %58 = getelementptr inbounds [8 x i16], ptr %21, i64 0, i64 0
  %59 = load i16, ptr %58, align 16, !tbaa !40
  %60 = sext i16 %59 to i32
  %61 = getelementptr inbounds [8 x i16], ptr %21, i64 0, i64 1
  %62 = load i16, ptr %61, align 2, !tbaa !40
  %63 = sext i16 %62 to i32
  %64 = add nsw i32 %60, %63
  %65 = getelementptr inbounds [8 x i16], ptr %21, i64 0, i64 2
  %66 = load i16, ptr %65, align 4, !tbaa !40
  %67 = sext i16 %66 to i32
  %68 = add nsw i32 %64, %67
  %69 = getelementptr inbounds [8 x i16], ptr %21, i64 0, i64 3
  %70 = load i16, ptr %69, align 2, !tbaa !40
  %71 = sext i16 %70 to i32
  %72 = add nsw i32 %68, %71
  store i32 %72, ptr %7, align 4, !tbaa !9
  call void @llvm.lifetime.end.p0(i64 16, ptr %21) #9
  %73 = load i32, ptr %7, align 4, !tbaa !9
  %74 = icmp sle i32 %73, 0
  br i1 %74, label %75, label %77

75:                                               ; preds = %3
  %76 = load i32, ptr %4, align 4, !tbaa !9
  br label %79

77:                                               ; preds = %3
  %78 = load i32, ptr %5, align 4, !tbaa !9
  br label %79

79:                                               ; preds = %77, %75
  %80 = phi i32 [ %76, %75 ], [ %78, %77 ]
  call void @llvm.lifetime.end.p0(i64 16, ptr %20) #9
  call void @llvm.lifetime.end.p0(i64 16, ptr %19) #9
  call void @llvm.lifetime.end.p0(i64 16, ptr %18) #9
  call void @llvm.lifetime.end.p0(i64 16, ptr %17) #9
  call void @llvm.lifetime.end.p0(i64 16, ptr %16) #9
  call void @llvm.lifetime.end.p0(i64 16, ptr %15) #9
  call void @llvm.lifetime.end.p0(i64 16, ptr %14) #9
  call void @llvm.lifetime.end.p0(i64 16, ptr %13) #9
  call void @llvm.lifetime.end.p0(i64 16, ptr %12) #9
  call void @llvm.lifetime.end.p0(i64 16, ptr %11) #9
  call void @llvm.lifetime.end.p0(i64 16, ptr %10) #9
  call void @llvm.lifetime.end.p0(i64 16, ptr %9) #9
  call void @llvm.lifetime.end.p0(i64 16, ptr %8) #9
  call void @llvm.lifetime.end.p0(i64 4, ptr %7) #9
  ret i32 %80
}

; Function Attrs: nounwind uwtable
define internal i32 @Predictor11_SSE2(ptr noundef %0, ptr noundef %1) #0 {
  %3 = alloca ptr, align 8
  %4 = alloca ptr, align 8
  %5 = alloca i32, align 4
  store ptr %0, ptr %3, align 8, !tbaa !7
  store ptr %1, ptr %4, align 8, !tbaa !7
  call void @llvm.lifetime.start.p0(i64 4, ptr %5) #9
  %6 = load ptr, ptr %4, align 8, !tbaa !7
  %7 = getelementptr inbounds i32, ptr %6, i64 0
  %8 = load i32, ptr %7, align 4, !tbaa !9
  %9 = load ptr, ptr %3, align 8, !tbaa !7
  %10 = load i32, ptr %9, align 4, !tbaa !9
  %11 = load ptr, ptr %4, align 8, !tbaa !7
  %12 = getelementptr inbounds i32, ptr %11, i64 -1
  %13 = load i32, ptr %12, align 4, !tbaa !9
  %14 = call i32 @Select_SSE2(i32 noundef %8, i32 noundef %10, i32 noundef %13)
  store i32 %14, ptr %5, align 4, !tbaa !9
  %15 = load i32, ptr %5, align 4, !tbaa !9
  call void @llvm.lifetime.end.p0(i64 4, ptr %5) #9
  ret i32 %15
}