; Function Attrs: mustprogress nofree norecurse nosync nounwind willreturn memory(argmem: read) uwtable
define internal i32 @Predictor11_SSE2(ptr noundef readonly captures(none) %0, ptr noundef readonly captures(none) %1) #1 {
  %3 = load i32, ptr %1, align 4, !tbaa !7
  %4 = load i32, ptr %0, align 4, !tbaa !7
  %5 = getelementptr inbounds i8, ptr %1, i64 -4
  %6 = load i32, ptr %5, align 4, !tbaa !7
  %7 = insertelement <4 x i32> <i32 poison, i32 0, i32 0, i32 0>, i32 %3, i64 0
  %8 = insertelement <4 x i32> <i32 poison, i32 0, i32 0, i32 0>, i32 %4, i64 0
  %9 = insertelement <4 x i32> <i32 poison, i32 0, i32 0, i32 0>, i32 %6, i64 0
  %10 = bitcast <4 x i32> %7 to <16 x i8>
  %11 = bitcast <4 x i32> %9 to <16 x i8>
  %12 = tail call <16 x i8> @llvm.usub.sat.v16i8(<16 x i8> %10, <16 x i8> %11)
  %13 = tail call <16 x i8> @llvm.usub.sat.v16i8(<16 x i8> %11, <16 x i8> %10)
  %14 = bitcast <4 x i32> %8 to <16 x i8>
  %15 = tail call <16 x i8> @llvm.usub.sat.v16i8(<16 x i8> %14, <16 x i8> %11)
  %16 = tail call <16 x i8> @llvm.usub.sat.v16i8(<16 x i8> %11, <16 x i8> %14)
  %17 = or <16 x i8> %12, %13
  %18 = or <16 x i8> %15, %16
  %19 = shufflevector <16 x i8> %17, <16 x i8> <i8 0, i8 0, i8 0, i8 0, i8 poison, i8 poison, i8 poison, i8 poison, i8 poison, i8 poison, i8 poison, i8 poison, i8 poison, i8 poison, i8 poison, i8 poison>, <16 x i32> <i32 0, i32 16, i32 1, i32 17, i32 2, i32 18, i32 3, i32 19, i32 poison, i32 poison, i32 poison, i32 poison, i32 poison, i32 poison, i32 poison, i32 poison>
  %20 = shufflevector <16 x i8> %18, <16 x i8> <i8 0, i8 0, i8 0, i8 0, i8 poison, i8 poison, i8 poison, i8 poison, i8 poison, i8 poison, i8 poison, i8 poison, i8 poison, i8 poison, i8 poison, i8 poison>, <16 x i32> <i32 0, i32 16, i32 1, i32 17, i32 2, i32 18, i32 3, i32 19, i32 poison, i32 poison, i32 poison, i32 poison, i32 poison, i32 poison, i32 poison, i32 poison>
  %21 = bitcast <16 x i8> %20 to <8 x i16>
  %22 = bitcast <16 x i8> %19 to <8 x i16>
  %23 = sub nsw <8 x i16> %21, %22
  %.sroa.0.0.vec.extract.i = extractelement <8 x i16> %23, i64 0
  %24 = sext i16 %.sroa.0.0.vec.extract.i to i32
  %.sroa.0.2.vec.extract.i = extractelement <8 x i16> %23, i64 1
  %25 = sext i16 %.sroa.0.2.vec.extract.i to i32
  %26 = add nsw i32 %24, %25
  %.sroa.0.4.vec.extract.i = extractelement <8 x i16> %23, i64 2
  %27 = sext i16 %.sroa.0.4.vec.extract.i to i32
  %28 = add nsw i32 %26, %27
  %.sroa.0.6.vec.extract.i = extractelement <8 x i16> %23, i64 3
  %29 = sext i16 %.sroa.0.6.vec.extract.i to i32
  %30 = add nsw i32 %28, %29
  %31 = icmp slt i32 %30, 1
  %32 = select i1 %31, i32 %3, i32 %4
  ret i32 %32
}